ccopy_reg
_reconstructor
p1
(cparser.keggpathway
PathwayNetwork
p2
c__builtin__
object
p3
NtRp4
(dp5
S'reactions'
p6
(dp7
S'j8'
p8
(iparser.reaction
Reaction
p9
(dp10
S'name'
p11
g8
sS'longname_map'
p12
(dp13
sS'ko'
p14
I00
sS'reversible'
p15
I00
sS'products'
p16
(lp17
S'c_akg'
p18
asS'arrow'
p19
I00
sS'active'
p20
I01
sS'stoichiometry'
p21
(dp22
g18
F1
sS'c_icit'
p23
F1
ssS'metabolism'
p24
S'user'
p25
sS'substrates'
p26
(lp27
g23
asbsS'j9'
p28
(iparser.reaction
Reaction
p29
(dp30
g11
g28
sg12
(dp31
sg14
I00
sg15
I00
sg16
(lp32
S'c_suc'
p33
asg19
I00
sg20
I01
sg21
(dp34
g33
F1
sS'c_akg'
p35
F1
ssg24
g25
sg26
(lp36
g35
asbsS'BIOMASS0'
p37
(iparser.reaction
Reaction
p38
(dp39
g11
g37
sg12
(dp40
sg14
I00
sg15
I00
sg16
(lp41
S'c_biomass.ext'
p42
asg19
I00
sg20
I01
sg21
(dp43
S'c_akg'
p44
F1.0780000000000001
sS'c_accoa'
p45
F2.9279999999999999
sg42
F1
sS'c_oaa'
p46
F1.786
sS'c_pyr'
p47
F2.8330000000000002
sS'c_g6p'
p48
F0.20499999999999999
ssg24
g25
sg26
(lp49
g44
ag46
ag45
ag47
ag48
asbsS'j4'
p50
(iparser.reaction
Reaction
p51
(dp52
g11
g50
sg12
(dp53
sg14
I00
sg15
I00
sg16
(lp54
S'c_pyr'
p55
asg19
I00
sg20
I01
sg21
(dp56
S'c_r5p'
p57
F1
sg55
F1
ssg24
g25
sg26
(lp58
g57
asbsS'j5'
p59
(iparser.reaction
Reaction
p60
(dp61
g11
g59
sg12
(dp62
sg14
I00
sg15
I00
sg16
(lp63
S'c_accoa'
p64
asg19
I00
sg20
I01
sg21
(dp65
S'c_pyr'
p66
F1
sg64
F1
ssg24
g25
sg26
(lp67
g66
asbsS'j7'
p68
(iparser.reaction
Reaction
p69
(dp70
g11
g68
sg12
(dp71
sg14
I00
sg15
I00
sg16
(lp72
S'c_icit'
p73
asg19
I00
sg20
I01
sg21
(dp74
S'c_oaa'
p75
F1
sS'c_accoa'
p76
F1
sg73
F1
ssg24
g25
sg26
(lp77
g76
ag75
asbsS'j2'
p78
(iparser.reaction
Reaction
p79
(dp80
g11
g78
sg12
(dp81
sg14
I00
sg15
I00
sg16
(lp82
S'c_r5p'
p83
asg19
I00
sg20
I01
sg21
(dp84
g83
F1
sS'c_g6p'
p85
F1
ssg24
g25
sg26
(lp86
g85
asbsS'j3'
p87
(iparser.reaction
Reaction
p88
(dp89
g11
g87
sg12
(dp90
sg14
I00
sg15
I00
sg16
(lp91
S'c_pyr'
p92
asg19
I00
sg20
I01
sg21
(dp93
g92
F2
sS'c_g6p'
p94
F1
ssg24
g25
sg26
(lp95
g94
asbsS'j10'
p96
(iparser.reaction
Reaction
p97
(dp98
g11
g96
sg12
(dp99
sg14
I00
sg15
I00
sg16
(lp100
S'c_oaa'
p101
asg19
I00
sg20
I01
sg21
(dp102
S'c_suc'
p103
F1
sg101
F1
ssg24
g25
sg26
(lp104
g103
asbsS'j11'
p105
(iparser.reaction
Reaction
p106
(dp107
g11
g105
sg12
(dp108
sg14
I00
sg15
I00
sg16
(lp109
S'c_oaa'
p110
asg19
I00
sg20
I01
sg21
(dp111
S'c_pyr'
p112
F1
sg110
F1
ssg24
g25
sg26
(lp113
g112
asbssS'user_pathway'
p114
(dp115
sS'compounddb'
p116
(iparser.compounddb
CompoundDB
p117
(dp118
bsS'total_gene'
p119
I0
sg11
S'TOY'
p120
sS'database'
p121
S'/research-www/engineering/tanglab/kegg_database/'
p122
sS'compound_database'
p123
(dp124
sS'collection_name'
p125
S'toy_example'
p126
sS'user_reaction_index'
p127
I0
sS'sv'
p128
cparser.defaultdict
defaultdict
p129
(c__builtin__
list
p130
tRp131
g18
(lp132
S' - 1.0 j8'
p133
aS' + 1.0 j9'
p134
aS' + 1.078 BIOMASS0'
p135
asg45
(lp136
S' + 2.928 BIOMASS0'
p137
aS' - 1.0 j5'
p138
aS' + 1.0 j7'
p139
asg33
(lp140
S' - 1.0 j9'
p141
aS' + 1.0 j10'
p142
asg46
(lp143
S' + 1.786 BIOMASS0'
p144
aS' + 1.0 j7'
p145
aS' - 1.0 j10'
p146
aS' - 1.0 j11'
p147
asg47
(lp148
S' + 2.833 BIOMASS0'
p149
aS' - 1.0 j4'
p150
aS' + 1.0 j5'
p151
aS' - 2.0 j3'
p152
aS' + 1.0 j11'
p153
asg57
(lp154
S' + 1.0 j4'
p155
aS' - 1.0 j2'
p156
asg48
(lp157
S' + 0.205 BIOMASS0'
p158
aS' + 1.0 j2'
p159
aS' + 1.0 j3'
p160
asg23
(lp161
S' + 1.0 j8'
p162
aS' - 1.0 j7'
p163
assS'filelist'
p164
(lp165
sS'bound'
p166
g129
(g130
tRp167
g8
(lp168
S'0'
aS'20'
p169
asg28
(lp170
S'0'
aS'20'
p171
asg37
(lp172
S'0'
aS'20'
p173
asg50
(lp174
S'0'
aS'20'
p175
asg59
(lp176
S'0'
aS'20'
p177
asg68
(lp178
S'0'
aS'20'
p179
asg78
(lp180
S'0'
aS'20'
p181
asg87
(lp182
S'0'
aS'20'
p183
asg96
(lp184
S'0'
aS'20'
p185
asg105
(lp186
S'0'
aS'20'
p187
assS'variable_database'
p188
(dp189
g8
S'V0'
p190
sg28
S'V1'
p191
sg37
S'V2'
p192
sg50
S'V3'
p193
sg59
S'V4'
p194
sg68
S'V5'
p195
sg78
S'V6'
p196
sg87
S'V7'
p197
sg96
S'V8'
p198
sg105
S'V9'
p199
ssS'possible_names'
p200
(dp201
sS'objective'
p202
(dp203
g8
F0
sg28
F0
sg37
F1
sg50
F0
sg59
F0
sg68
F0
sg78
F0
sg87
F0
sg96
F0
sg105
F0
ssS'model'
p204
(iparser.keggpathway
OptimizationModel
p205
(dp206
S'variable'
p207
g189
sg202
g203
sS'bounds'
p208
g167
sS'pathway'
p209
NsS'constraints'
p210
g131
sbsS'total_orthlog'
p211
I0
sS'active_orthlog'
p212
I0
sS'active_gene'
p213
I0
sb.